(dp1
Vright/forward
p2
S'right or forward'
p3
sVperfoming
p4
S'performing'
p5
sVspining
p6
S'spinning'
p7
sVopposit
p8
S'opposite'
p9
sVbakcward
p10
S'backward'
p11
sVstetching
p12
S'stretching'
p13
sVfowards
p14
S'forwards'
p15
sVping-pong
p16
S'ping-pong'
p17
sVkata
p18
S'kata'
p19
sVscrotch
p20
S'scrotch'
p21
sVthroughful
p22
S'thoughtful'
p23
sVsmartphone
p24
S'smartphone'
p25
sVbounces/punches
p26
S'bounces or punches'
p27
sVtu
p28
S'to'
p29
sVperfoms
p30
S'performs'
p31
sVfoward
p32
S'forward'
p33
sVquater
p34
S'quarter'
p35
sVresistense
p36
S'resistance'
p37
sVviolette
p38
S'violin'
p39
sVwlaks
p40
S'walks'
p41
sVpushup
p42
S'push up'
p43
sVciricle
p44
S'circle'
p45
sVdwadling
p46
S'dawdling'
p47
sVrigth
p48
S'right'
p49
sVmacarena
p50
S'macarena'
p51
sVegyptian
p52
S'egyptian'
p53
sVinstument
p54
S'instrument'
p55
sVbeccause
p56
S'because'
p57
sVpusehd
p58
S'pushed'
p59
sVdanse
p60
S'dance'
p61
sVwavs
p62
S'waves'
p63
sVbeeing
p64
S'being'
p65
sVparcour
p66
S'parkour'
p67
sVathlet
p68
S'athlete'
p69
sVguitare
p70
S'guitar'
p71
sVbackflip
p72
S'backflip'
p73
sVquartercircle
p74
S'quarter-circle'
p75
sVjoggs
p76
S'jogs'
p77
sVzwo
p78
S'two'
p79
sVstept
p80
S'step'
p81
sVdegress
p82
S'degrees'
p83
sV10cm
p84
S'10cm'
p85
sV2m
p86
S'2m'
p87
sVwalds
p88
g41
sVtrurns
p89
S'turns'
p90
sVbak
p91
S'back'
p92
sV90degrees
p93
S'90 degrees'
p94
sVperformin
p95
S'performing'
p96
sVapprocimately
p97
S'approximately'
p98
sVobejct
p99
S'object'
p100
sVappoximately
p101
g98
sVfrowards
p102
g15
sVquter
p103
g35
sVitsel
p104
S'itself'
p105
sVsidejump
p106
S'side jump'
p107
sVborh
p108
S'both'
p109
sVcirlce
p110
g45
sV20cm
p111
S'20cm'
p112
sVontop
p113
S'on top'
p114
sVconterclockwise
p115
S'counter-clockwise'
p116
sVdefence
p117
S'defense'
p118
sVbuched
p119
S'punched'
p120
sV/
S'/'
sVbalacing
p121
S'balancing'
p122
sVstepstones
p123
S'stepping stones'
p124
sVperons
p125
S'persons'
p126
sVstopd
p127
S'stopped'
p128
sVwipping
p129
S'wiping'
p130
sVagaingst
p131
S'against'
p132
sVhim/her
p133
S'him'
p134
sVlatin
p135
S'latin'
p136
sVspinns
p137
S'spins'
p138
sVcentimeteres
p139
S'centimeters'
p140
sVakwardly
p141
S'awkwardly'
p142
sVcirle
p143
g45
sValcoholized
p144
S'alcoholized'
p145
sVbaskeball
p146
S'basketball'
p147
sVstes
p148
S'steps'
p149
sVaxe
p150
S'axe'
p151
sVexecise
p152
S'exercise'
p153
sVerson
p154
S'person'
p155
sVfightig
p156
S'fighting'
p157
sVstiring
p158
S'stirring'
p159
sV180degree
p160
S'180 degrees'
p161
sVsideward
p162
S'sidewards'
p163
sVmetre
p164
S'meter'
p165
sVpartways
p166
S'partway'
p167
sVpeforms
p168
S'performs'
p169
sVglas/bottle
p170
S'glass'
p171
sVperso
p172
g155
sVninjutsu
p173
S'ninjutsu'
p174
sVbackstep
p175
S'step back'
p176
sVlookig
p177
S'looking'
p178
sVsomesone
p179
S'someone'
p180
sVstreight
p181
S'straight'
p182
sVpuch
p183
S'punch'
p184
sVperforminga
p185
g96
sVcounte
p186
S'counter'
p187
sVforwardd
p188
g33
sVperon
p189
g155
sVwals
p190
g41
sVforeward
p191
g33
sVforwad
p192
g33
sVbendig
p193
S'bending'
p194
sS'anti-clockwise'
p195
S'counter-clockwise'
p196
sVreachs
p197
S'reaches'
p198
sVjew
p199
S'few'
p200
sVagressively
p201
S'aggressively'
p202
sVbackflips
p203
S'backflips'
p204
sVwlking
p205
S'walking'
p206
sVforwars
p207
g33
sVthean
p208
S'then'
p209
sVwiththe
p210
S'with the'
p211
sVapproximatly
p212
g98
sVlitlle
p213
S'little'
p214
sV1m
p215
S'1m'
p216
sVguitarre
p217
g71
sVwuickly
p218
S'quickly'
p219
sVstrirring
p220
g159
sVstreching
p221
g13
sVglas
p222
S'glass'
p223
sVsidewared
p224
S'sideward'
p225
sVstrumbles
p226
S'stumbles'
p227
sVagaing
p228
S'again'
p229
sVsteplength
p230
S'step length'
p231
sVbhind
p232
S'behind'
p233
sVflac
p234
S'flac'
p235
sVtrun
p236
S'run'
p237
sVstepipng
p238
S'stepping'
p239
sVsomone
p240
S'someone'
p241
sVgitarre
p242
g71
sVpuched
p243
S'punched'
p244
sVwarmup
p245
S'warm-up'
p246
sVsomeone/something
p247
g180
sVforwads
p248
g15
sVcrabwise
p249
S'\\'
sVhis/her
p250
S'his'
p251
sVsth
p252
S'something'
p253
sVsteping
p254
S'stepping'
p255
sVcarfefully
p256
S'carefully'
p257
sVhim-/herself
p258
S'himself'
p259
sVhuiman
p260
S'human'
p261
sVstartspot
p262
S'start spot'
p263
sVsidejumps
p264
S'side-jumps'
p265
sVgeht
p266
S'gets'
p267
sVcontiniues
p268
S'continues'
p269
sVflic
p270
S'flic'
p271
sVanf
p272
S'and'
p273
sVoutstreched
p274
S'outstretched'
p275
sVcricle
p276
g45
sVsomeonewho
p277
S'someone who'
p278
sVtaes
p279
S'takes'
p280
sVperosn
p281
g126
sVwaypoints
p282
S'way points'
p283
sVobove
p284
S'above'
p285
sVwawing
p286
S'waving'
p287
sVminigolf
p288
S'mini golf'
p289
sVsholder
p290
S'shoulder'
p291
sVpodest
p292
S'pedestal'
p293
sVist
p294
S'is'
p295
sVvioline
p296
g39
sV30cm
p297
S'30cm'
p298
sV50cm
p299
S'50 cm'
p300
sVwalzer
p301
S'waltzer'
p302
sVavaoids
p303
S'avoids'
p304
sVatm
p305
S'atm'
p306
sV-
S'to'
p307
sVdegreesleftwards
p308
S'degrees leftwards'
p309
sVwhiping
p310
S'whipping'
p311
sVcirlces
p312
g45
sVmingolf
p313
S'minigolf'
p314
sVkickboxing
p315
S'kick-boxing'
p316
sVfloo
p317
S'floor'
p318
sVtruning
p319
S'turning'
p320
sVrebalance
p321
S're-balance'
p322
sS'anticlockwise'
p323
S'counter-clockwise'
p324
sVsubect
p325
S'subject'
p326
sVgrund
p327
S'ground'
p328
sVgymnatics
p329
S'gymnastics'
p330
sVparkour
p331
S'parkour'
p332
sVpersond
p333
g155
sVpersone
p334
g155
sVturing
p335
S'turning'
p336
sVanothers
p337
S'another'
p338
sVeft
p339
S'left'
p340
sVheavly
p341
S'heavily'
p342
sVbefor
p343
S'before'
p344
sVstepps
p345
S'steps'
p346
sVwalkes
p347
S'walks'
p348
sVintially
p349
S'initially'
p350
sVomething
p351
S'something'
p352
sV15m
p353
S'15m'
p354
sVstumbels
p355
S'stumbles'
p356
sVinital
p357
S'initial'
p358
sVcontinuos
p359
g269
sVwawving
p360
S'waving'
p361
sVcha-cha-cha
p362
S'cha-cha-cha'
p363
sVstreched
p364
S'stretched'
p365
sVnordic
p366
S'nordic'
p367
sVchachacha
p368
S'cha-cha-cha'
p369
sVwakling
p370
S'walking'
p371
sS'weigh'
p372
S'weight'
p373
sVsitestep
p374
S'sidestep'
p375
sV70cm
p376
S'70 cm'
p377
s.